target datalayout = "e-m:e-p270:32:32-p271:32:32-p272:64:64-i64:64-i128:128-f80:128-n8:16:32:64-S128"
target triple = "x86_64-pc-linux-gnu"

%struct._object = type { %union.anon, ptr }
%union.anon = type { i64 }
%struct.pyexpat_state = type { ptr, ptr, ptr }
%struct.xmlparseobject = type { %struct._object, ptr, i32, i32, i32, i32, ptr, i32, i32, i8, ptr, ptr }
%struct.anon = type { i32, i32 }

@.str.110 = private unnamed_addr constant [23 x i8] c"%s: line %i, column %i\00", align 1
@.str.111 = private unnamed_addr constant [5 x i8] c"code\00", align 1
@.str.112 = private unnamed_addr constant [7 x i8] c"offset\00", align 1
@.str.113 = private unnamed_addr constant [7 x i8] c"lineno\00", align 1

; Function Attrs: alwaysinline nounwind uwtable
define internal i32 @_Py_IsImmortal(ptr noundef %0) #5 {
  %2 = alloca ptr, align 8
  store ptr %0, ptr %2, align 8, !tbaa !3
  %3 = load ptr, ptr %2, align 8, !tbaa !3
  %4 = getelementptr inbounds nuw %struct._object, ptr %3, i32 0, i32 0
  %5 = getelementptr inbounds nuw %struct.anon, ptr %4, i32 0, i32 0
  %6 = load i32, ptr %5, align 8, !tbaa !49
  %7 = icmp slt i32 %6, 0
  %8 = zext i1 %7 to i32
  ret i32 %8
}

; Function Attrs: inlinehint nounwind uwtable
define internal void @Py_XDECREF(ptr noundef %0) #3 {
  %2 = alloca ptr, align 8
  store ptr %0, ptr %2, align 8, !tbaa !3
  %3 = load ptr, ptr %2, align 8, !tbaa !3
  %4 = icmp ne ptr %3, null
  br i1 %4, label %5, label %7

5:                                                ; preds = %1
  %6 = load ptr, ptr %2, align 8, !tbaa !3
  call void @Py_DECREF(ptr noundef %6)
  br label %7

7:                                                ; preds = %5, %1
  ret void
}

; Function Attrs: nounwind uwtable
define internal i32 @set_error_attr(ptr noundef %0, ptr noundef %1, i32 noundef %2) #0 {
  %4 = alloca i32, align 4
  %5 = alloca ptr, align 8
  %6 = alloca ptr, align 8
  %7 = alloca i32, align 4
  %8 = alloca ptr, align 8
  %9 = alloca i32, align 4
  store ptr %0, ptr %5, align 8, !tbaa !3
  store ptr %1, ptr %6, align 8, !tbaa !23
  store i32 %2, ptr %7, align 4, !tbaa !12
  call void @llvm.lifetime.start.p0(i64 8, ptr %8) #7
  %10 = load i32, ptr %7, align 4, !tbaa !12
  %11 = sext i32 %10 to i64
  %12 = call ptr @PyLong_FromLong(i64 noundef %11)
  store ptr %12, ptr %8, align 8, !tbaa !3
  %13 = load ptr, ptr %8, align 8, !tbaa !3
  %14 = icmp eq ptr %13, null
  br i1 %14, label %21, label %15

15:                                               ; preds = %3
  %16 = load ptr, ptr %5, align 8, !tbaa !3
  %17 = load ptr, ptr %6, align 8, !tbaa !23
  %18 = load ptr, ptr %8, align 8, !tbaa !3
  %19 = call i32 @PyObject_SetAttrString(ptr noundef %16, ptr noundef %17, ptr noundef %18)
  %20 = icmp eq i32 %19, -1
  br i1 %20, label %21, label %23

21:                                               ; preds = %15, %3
  %22 = load ptr, ptr %8, align 8, !tbaa !3
  call void @Py_XDECREF(ptr noundef %22)
  store i32 0, ptr %4, align 4
  store i32 1, ptr %9, align 4
  br label %25

23:                                               ; preds = %15
  %24 = load ptr, ptr %8, align 8, !tbaa !3
  call void @Py_DECREF(ptr noundef %24)
  store i32 1, ptr %4, align 4
  store i32 1, ptr %9, align 4
  br label %25

25:                                               ; preds = %23, %21
  call void @llvm.lifetime.end.p0(i64 8, ptr %8) #7
  %26 = load i32, ptr %4, align 4
  ret i32 %26
}

; Function Attrs: alwaysinline nounwind uwtable
define internal void @Py_DECREF(ptr noundef %0) #5 {
  %2 = alloca ptr, align 8
  store ptr %0, ptr %2, align 8, !tbaa !3
  %3 = load ptr, ptr %2, align 8, !tbaa !3
  %4 = call i32 @_Py_IsImmortal(ptr noundef %3)
  %5 = icmp ne i32 %4, 0
  br i1 %5, label %6, label %7

6:                                                ; preds = %1
  br label %16

7:                                                ; preds = %1
  %8 = load ptr, ptr %2, align 8, !tbaa !3
  %9 = getelementptr inbounds nuw %struct._object, ptr %8, i32 0, i32 0
  %10 = getelementptr inbounds nuw %struct.anon, ptr %9, i32 0, i32 0
  %11 = load i32, ptr %10, align 8, !tbaa !49
  %12 = add i32 %11, -1
  store i32 %12, ptr %10, align 8, !tbaa !49
  %13 = icmp eq i32 %12, 0
  br i1 %13, label %14, label %16

14:                                               ; preds = %7
  %15 = load ptr, ptr %2, align 8, !tbaa !3
  call void @_Py_Dealloc(ptr noundef %15)
  br label %16

16:                                               ; preds = %6, %14, %7
  ret void
}

; Function Attrs: nounwind uwtable
define internal ptr @set_error(ptr noundef %0, ptr noundef %1, i32 noundef %2) #0 {
  %4 = alloca ptr, align 8
  %5 = alloca ptr, align 8
  %6 = alloca ptr, align 8
  %7 = alloca i32, align 4
  %8 = alloca ptr, align 8
  %9 = alloca ptr, align 8
  %10 = alloca ptr, align 8
  %11 = alloca i32, align 4
  %12 = alloca i32, align 4
  %13 = alloca i32, align 4
  store ptr %0, ptr %5, align 8, !tbaa !8
  store ptr %1, ptr %6, align 8, !tbaa !8
  store i32 %2, ptr %7, align 4, !tbaa !12
  call void @llvm.lifetime.start.p0(i64 8, ptr %8) #7
  call void @llvm.lifetime.start.p0(i64 8, ptr %9) #7
  call void @llvm.lifetime.start.p0(i64 8, ptr %10) #7
  %14 = load ptr, ptr %6, align 8, !tbaa !8
  %15 = getelementptr inbounds nuw %struct.xmlparseobject, ptr %14, i32 0, i32 1
  %16 = load ptr, ptr %15, align 8, !tbaa !48
  store ptr %16, ptr %10, align 8, !tbaa !70
  call void @llvm.lifetime.start.p0(i64 4, ptr %11) #7
  %17 = load ptr, ptr %10, align 8, !tbaa !70
  %18 = call i64 @PyExpat_XML_GetCurrentLineNumber(ptr noundef %17)
  %19 = trunc i64 %18 to i32
  store i32 %19, ptr %11, align 4, !tbaa !12
  call void @llvm.lifetime.start.p0(i64 4, ptr %12) #7
  %20 = load ptr, ptr %10, align 8, !tbaa !70
  %21 = call i64 @PyExpat_XML_GetCurrentColumnNumber(ptr noundef %20)
  %22 = trunc i64 %21 to i32
  store i32 %22, ptr %12, align 4, !tbaa !12
  %23 = load i32, ptr %7, align 4, !tbaa !12
  %24 = call ptr @PyExpat_XML_ErrorString(i32 noundef %23)
  %25 = load i32, ptr %11, align 4, !tbaa !12
  %26 = load i32, ptr %12, align 4, !tbaa !12
  %27 = call ptr (ptr, ...) @PyUnicode_FromFormat(ptr noundef @.str.110, ptr noundef %24, i32 noundef %25, i32 noundef %26)
  store ptr %27, ptr %9, align 8, !tbaa !3
  %28 = load ptr, ptr %9, align 8, !tbaa !3
  %29 = icmp eq ptr %28, null
  br i1 %29, label %30, label %31

30:                                               ; preds = %3
  store ptr null, ptr %4, align 8
  store i32 1, ptr %13, align 4
  br label %62

31:                                               ; preds = %3
  %32 = load ptr, ptr %5, align 8, !tbaa !8
  %33 = getelementptr inbounds nuw %struct.pyexpat_state, ptr %32, i32 0, i32 1
  %34 = load ptr, ptr %33, align 8, !tbaa !14
  %35 = load ptr, ptr %9, align 8, !tbaa !3
  %36 = call ptr @PyObject_CallOneArg(ptr noundef %34, ptr noundef %35)
  store ptr %36, ptr %8, align 8, !tbaa !3
  %37 = load ptr, ptr %9, align 8, !tbaa !3
  call void @Py_DECREF(ptr noundef %37)
  %38 = load ptr, ptr %8, align 8, !tbaa !3
  %39 = icmp ne ptr %38, null
  br i1 %39, label %40, label %60

40:                                               ; preds = %31
  %41 = load ptr, ptr %8, align 8, !tbaa !3
  %42 = load i32, ptr %7, align 4, !tbaa !12
  %43 = call i32 @set_error_attr(ptr noundef %41, ptr noundef @.str.111, i32 noundef %42)
  %44 = icmp ne i32 %43, 0
  br i1 %44, label %45, label %60

45:                                               ; preds = %40
  %46 = load ptr, ptr %8, align 8, !tbaa !3
  %47 = load i32, ptr %12, align 4, !tbaa !12
  %48 = call i32 @set_error_attr(ptr noundef %46, ptr noundef @.str.112, i32 noundef %47)
  %49 = icmp ne i32 %48, 0
  br i1 %49, label %50, label %60

50:                                               ; preds = %45
  %51 = load ptr, ptr %8, align 8, !tbaa !3
  %52 = load i32, ptr %11, align 4, !tbaa !12
  %53 = call i32 @set_error_attr(ptr noundef %51, ptr noundef @.str.113, i32 noundef %52)
  %54 = icmp ne i32 %53, 0
  br i1 %54, label %55, label %60

55:                                               ; preds = %50
  %56 = load ptr, ptr %5, align 8, !tbaa !8
  %57 = getelementptr inbounds nuw %struct.pyexpat_state, ptr %56, i32 0, i32 1
  %58 = load ptr, ptr %57, align 8, !tbaa !14
  %59 = load ptr, ptr %8, align 8, !tbaa !3
  call void @PyErr_SetObject(ptr noundef %58, ptr noundef %59)
  br label %60

60:                                               ; preds = %55, %50, %45, %40, %31
  %61 = load ptr, ptr %8, align 8, !tbaa !3
  call void @Py_XDECREF(ptr noundef %61)
  store ptr null, ptr %4, align 8
  store i32 1, ptr %13, align 4
  br label %62

62:                                               ; preds = %60, %30
  call void @llvm.lifetime.end.p0(i64 4, ptr %12) #7
  call void @llvm.lifetime.end.p0(i64 4, ptr %11) #7
  call void @llvm.lifetime.end.p0(i64 8, ptr %10) #7
  call void @llvm.lifetime.end.p0(i64 8, ptr %9) #7
  call void @llvm.lifetime.end.p0(i64 8, ptr %8) #7
  %63 = load ptr, ptr %4, align 8
  ret ptr %63
}