; Function Attrs: nounwind uwtable
define internal fastcc void @set_error(ptr noundef readonly captures(none) %0, ptr %.16.val, i32 noundef %1) unnamed_addr #0 {
  %3 = tail call i64 @PyExpat_XML_GetCurrentLineNumber(ptr noundef %.16.val) #8
  %4 = trunc i64 %3 to i32
  %5 = tail call i64 @PyExpat_XML_GetCurrentColumnNumber(ptr noundef %.16.val) #8
  %6 = trunc i64 %5 to i32
  %7 = tail call ptr @PyExpat_XML_ErrorString(i32 noundef %1) #8
  %8 = tail call ptr (ptr, ...) @PyUnicode_FromFormat(ptr noundef nonnull @.str.110, ptr noundef %7, i32 noundef %4, i32 noundef %6) #8
  %9 = icmp eq ptr %8, null
  br i1 %9, label %Py_XDECREF.exit, label %10

10:                                               ; preds = %2
  %11 = getelementptr inbounds nuw i8, ptr %0, i64 8
  %12 = load ptr, ptr %11, align 8, !tbaa !10
  %13 = tail call ptr @PyObject_CallOneArg(ptr noundef %12, ptr noundef nonnull %8) #8
  %14 = load i32, ptr %8, align 8, !tbaa !13
  %.not.i = icmp sgt i32 %14, -1
  br i1 %.not.i, label %15, label %Py_DECREF.exit

15:                                               ; preds = %10
  %16 = add nsw i32 %14, -1
  store i32 %16, ptr %8, align 8, !tbaa !13
  %17 = icmp eq i32 %16, 0
  br i1 %17, label %18, label %Py_DECREF.exit

18:                                               ; preds = %15
  tail call void @_Py_Dealloc(ptr noundef nonnull %8) #8
  br label %Py_DECREF.exit

Py_DECREF.exit:                                   ; preds = %10, %15, %18
  %.not = icmp eq ptr %13, null
  br i1 %.not, label %Py_XDECREF.exit, label %19

19:                                               ; preds = %Py_DECREF.exit
  %20 = sext i32 %1 to i64
  %21 = tail call ptr @PyLong_FromLong(i64 noundef %20) #8
  %22 = icmp eq ptr %21, null
  br i1 %22, label %set_error_attr.exit.thread, label %23

23:                                               ; preds = %19
  %24 = tail call i32 @PyObject_SetAttrString(ptr noundef nonnull %13, ptr noundef nonnull @.str.111, ptr noundef nonnull %21) #8
  %25 = icmp eq i32 %24, -1
  %26 = load i32, ptr %21, align 8, !tbaa !13
  %.not.i.i.i = icmp sgt i32 %26, -1
  br i1 %25, label %.split7.i, label %30

.split7.i:                                        ; preds = %23
  br i1 %.not.i.i.i, label %27, label %set_error_attr.exit.thread

27:                                               ; preds = %.split7.i
  %28 = add nsw i32 %26, -1
  store i32 %28, ptr %21, align 8, !tbaa !13
  %29 = icmp eq i32 %28, 0
  br i1 %29, label %set_error_attr.exit.thread7, label %set_error_attr.exit.thread

set_error_attr.exit.thread7:                      ; preds = %27
  tail call void @_Py_Dealloc(ptr noundef nonnull %21) #8
  br label %set_error_attr.exit.thread

30:                                               ; preds = %23
  br i1 %.not.i.i.i, label %31, label %set_error_attr.exit.thread4

31:                                               ; preds = %30
  %32 = add nsw i32 %26, -1
  store i32 %32, ptr %21, align 8, !tbaa !13
  %33 = icmp eq i32 %32, 0
  br i1 %33, label %set_error_attr.exit, label %set_error_attr.exit.thread4

set_error_attr.exit:                              ; preds = %31
  tail call void @_Py_Dealloc(ptr noundef nonnull %21) #8
  br label %set_error_attr.exit.thread4

set_error_attr.exit.thread4:                      ; preds = %31, %30, %set_error_attr.exit
  %sext = shl i64 %5, 32
  %34 = ashr exact i64 %sext, 32
  %35 = tail call ptr @PyLong_FromLong(i64 noundef %34) #8
  %36 = icmp eq ptr %35, null
  br i1 %36, label %set_error_attr.exit.thread, label %37

37:                                               ; preds = %set_error_attr.exit.thread4
  %38 = tail call i32 @PyObject_SetAttrString(ptr noundef nonnull %13, ptr noundef nonnull @.str.112, ptr noundef nonnull %35) #8
  %39 = icmp eq i32 %38, -1
  %40 = load i32, ptr %35, align 8, !tbaa !13
  %.not.i.i.i24 = icmp sgt i32 %40, -1
  br i1 %39, label %.split7.i28, label %44

.split7.i28:                                      ; preds = %37
  br i1 %.not.i.i.i24, label %41, label %set_error_attr.exit.thread

41:                                               ; preds = %.split7.i28
  %42 = add nsw i32 %40, -1
  store i32 %42, ptr %35, align 8, !tbaa !13
  %43 = icmp eq i32 %42, 0
  br i1 %43, label %set_error_attr.exit29.thread16, label %set_error_attr.exit.thread

set_error_attr.exit29.thread16:                   ; preds = %41
  tail call void @_Py_Dealloc(ptr noundef nonnull %35) #8
  br label %set_error_attr.exit.thread

44:                                               ; preds = %37
  br i1 %.not.i.i.i24, label %45, label %set_error_attr.exit29.thread13

45:                                               ; preds = %44
  %46 = add nsw i32 %40, -1
  store i32 %46, ptr %35, align 8, !tbaa !13
  %47 = icmp eq i32 %46, 0
  br i1 %47, label %set_error_attr.exit29, label %set_error_attr.exit29.thread13

set_error_attr.exit29:                            ; preds = %45
  tail call void @_Py_Dealloc(ptr noundef nonnull %35) #8
  br label %set_error_attr.exit29.thread13

set_error_attr.exit29.thread13:                   ; preds = %45, %44, %set_error_attr.exit29
  %sext28 = shl i64 %3, 32
  %48 = ashr exact i64 %sext28, 32
  %49 = tail call ptr @PyLong_FromLong(i64 noundef %48) #8
  %50 = icmp eq ptr %49, null
  br i1 %50, label %set_error_attr.exit.thread, label %51

51:                                               ; preds = %set_error_attr.exit29.thread13
  %52 = tail call i32 @PyObject_SetAttrString(ptr noundef nonnull %13, ptr noundef nonnull @.str.113, ptr noundef nonnull %49) #8
  %53 = icmp eq i32 %52, -1
  %54 = load i32, ptr %49, align 8, !tbaa !13
  %.not.i.i.i30 = icmp sgt i32 %54, -1
  br i1 %53, label %.split7.i34, label %58

.split7.i34:                                      ; preds = %51
  br i1 %.not.i.i.i30, label %55, label %set_error_attr.exit.thread

55:                                               ; preds = %.split7.i34
  %56 = add nsw i32 %54, -1
  store i32 %56, ptr %49, align 8, !tbaa !13
  %57 = icmp eq i32 %56, 0
  br i1 %57, label %set_error_attr.exit35.thread25, label %set_error_attr.exit.thread

set_error_attr.exit35.thread25:                   ; preds = %55
  tail call void @_Py_Dealloc(ptr noundef nonnull %49) #8
  br label %set_error_attr.exit.thread

58:                                               ; preds = %51
  br i1 %.not.i.i.i30, label %59, label %set_error_attr.exit35.thread22

59:                                               ; preds = %58
  %60 = add nsw i32 %54, -1
  store i32 %60, ptr %49, align 8, !tbaa !13
  %61 = icmp eq i32 %60, 0
  br i1 %61, label %set_error_attr.exit35, label %set_error_attr.exit35.thread22

set_error_attr.exit35:                            ; preds = %59
  tail call void @_Py_Dealloc(ptr noundef nonnull %49) #8
  br label %set_error_attr.exit35.thread22

set_error_attr.exit35.thread22:                   ; preds = %59, %58, %set_error_attr.exit35
  %62 = load ptr, ptr %11, align 8, !tbaa !10
  tail call void @PyErr_SetObject(ptr noundef %62, ptr noundef nonnull %13) #8
  br label %set_error_attr.exit.thread

set_error_attr.exit.thread:                       ; preds = %55, %.split7.i34, %set_error_attr.exit29.thread13, %41, %.split7.i28, %set_error_attr.exit.thread4, %27, %.split7.i, %19, %set_error_attr.exit35.thread25, %set_error_attr.exit29.thread16, %set_error_attr.exit.thread7, %set_error_attr.exit35.thread22
  %63 = load i32, ptr %13, align 8, !tbaa !13
  %.not.i.i = icmp sgt i32 %63, -1
  br i1 %.not.i.i, label %64, label %Py_XDECREF.exit

64:                                               ; preds = %set_error_attr.exit.thread
  %65 = add nsw i32 %63, -1
  store i32 %65, ptr %13, align 8, !tbaa !13
  %66 = icmp eq i32 %65, 0
  br i1 %66, label %67, label %Py_XDECREF.exit

67:                                               ; preds = %64
  tail call void @_Py_Dealloc(ptr noundef nonnull %13) #8
  br label %Py_XDECREF.exit

Py_XDECREF.exit:                                  ; preds = %67, %64, %set_error_attr.exit.thread, %Py_DECREF.exit, %2
  ret void
}